target datalayout = "e-m:e-p270:32:32-p271:32:32-p272:64:64-i64:64-i128:128-f80:128-n8:16:32:64-S128"
target triple = "x86_64-pc-linux-gnu"

%"class.std::__1::basic_string" = type { %"class.std::__1::__compressed_pair" }
%"class.std::__1::__compressed_pair" = type { %"struct.std::__1::__compressed_pair_elem" }
%"struct.std::__1::__compressed_pair_elem" = type { %"struct.std::__1::basic_string<char>::__rep" }
%"struct.std::__1::basic_string<char>::__rep" = type { %union.anon }
%union.anon = type { %"struct.std::__1::basic_string<char>::__long" }
%"struct.std::__1::basic_string<char>::__long" = type { %struct.anon.6, i64, ptr }
%struct.anon.6 = type { i64 }
%"class.std::__1::map" = type { %"class.std::__1::__tree" }
%"class.std::__1::__tree" = type { ptr, %"class.std::__1::__compressed_pair.8", %"class.std::__1::__compressed_pair.14" }
%"class.std::__1::__compressed_pair.8" = type { %"struct.std::__1::__compressed_pair_elem.9" }
%"struct.std::__1::__compressed_pair_elem.9" = type { %"class.std::__1::__tree_end_node" }
%"class.std::__1::__tree_end_node" = type { ptr }
%"class.std::__1::__compressed_pair.14" = type { %"struct.std::__1::__compressed_pair_elem.15" }
%"struct.std::__1::__compressed_pair_elem.15" = type { i64 }
%"class.std::__1::__tree_iterator" = type { ptr }
%"struct.std::__1::pair" = type { %"class.std::__1::basic_string", ptr }
%"class.std::__1::__map_iterator" = type { %"class.std::__1::__tree_iterator" }
%"class.std::__1::__tree_node" = type { %"class.std::__1::__tree_node_base.base", %"struct.std::__1::__value_type" }
%"class.std::__1::__tree_node_base.base" = type <{ %"class.std::__1::__tree_end_node", ptr, ptr, i8 }>
%"struct.std::__1::__value_type" = type { %"struct.std::__1::pair" }

@_ZN7mitsubaL9__classesE = internal global ptr null, align 8

; Function Attrs: mustprogress nounwind uwtable
define linkonce_odr hidden noundef nonnull align 8 dereferenceable(8) ptr @_ZNSt3__122__compressed_pair_elemINS_15__tree_end_nodeIPNS_16__tree_node_baseIPvEEEELi0ELb0EE5__getB8ne190000Ev(ptr noundef nonnull align 8 dereferenceable(8) %0) #2 comdat align 2 {
  %2 = alloca ptr, align 8
  store ptr %0, ptr %2, align 8
  %3 = load ptr, ptr %2, align 8
  %4 = getelementptr inbounds %"struct.std::__1::__compressed_pair_elem.9", ptr %3, i32 0, i32 0
  ret ptr %4
}

; Function Attrs: mustprogress nounwind uwtable
define linkonce_odr hidden noundef ptr @_ZNSt3__19__launderB8ne190000INS_4pairIKNS_12basic_stringIcNS_11char_traitsIcEENS_9allocatorIcEEEEPN7mitsuba5ClassEEEEEPT_SE_(ptr noundef %0) #2 comdat {
  %2 = alloca ptr, align 8
  store ptr %0, ptr %2, align 8
  %3 = load ptr, ptr %2, align 8
  ret ptr %3
}

; Function Attrs: mustprogress nounwind uwtable
define linkonce_odr hidden noundef ptr @_ZNSt3__114pointer_traitsIPNS_15__tree_end_nodeIPNS_16__tree_node_baseIPvEEEEE10pointer_toB8ne190000ERS6_(ptr noundef nonnull align 8 dereferenceable(8) %0) #2 comdat align 2 {
  %2 = alloca ptr, align 8
  store ptr %0, ptr %2, align 8
  %3 = load ptr, ptr %2, align 8
  ret ptr %3
}

; Function Attrs: mustprogress nounwind uwtable
define linkonce_odr hidden noundef nonnull align 8 dereferenceable(8) ptr @_ZNSt3__117__compressed_pairINS_15__tree_end_nodeIPNS_16__tree_node_baseIPvEEEENS_9allocatorINS_11__tree_nodeINS_12__value_typeINS_12basic_stringIcNS_11char_traitsIcEENS7_IcEEEEPN7mitsuba5ClassEEES3_EEEEE5firstB8ne190000Ev(ptr noundef nonnull align 8 dereferenceable(8) %0) #2 comdat align 2 {
  %2 = alloca ptr, align 8
  store ptr %0, ptr %2, align 8
  %3 = load ptr, ptr %2, align 8
  %4 = call noundef nonnull align 8 dereferenceable(8) ptr @_ZNSt3__122__compressed_pair_elemINS_15__tree_end_nodeIPNS_16__tree_node_baseIPvEEEELi0ELb0EE5__getB8ne190000Ev(ptr noundef nonnull align 8 dereferenceable(8) %3) #14
  ret ptr %4
}

; Function Attrs: mustprogress nounwind uwtable
define linkonce_odr hidden noundef ptr @_ZNSt3__17launderB8ne190000INS_4pairIKNS_12basic_stringIcNS_11char_traitsIcEENS_9allocatorIcEEEEPN7mitsuba5ClassEEEEEPT_SE_(ptr noundef %0) #2 comdat {
  %2 = alloca ptr, align 8
  store ptr %0, ptr %2, align 8
  %3 = load ptr, ptr %2, align 8
  %4 = call noundef ptr @_ZNSt3__19__launderB8ne190000INS_4pairIKNS_12basic_stringIcNS_11char_traitsIcEENS_9allocatorIcEEEEPN7mitsuba5ClassEEEEEPT_SE_(ptr noundef %3) #14
  ret ptr %4
}

; Function Attrs: mustprogress nounwind uwtable
define linkonce_odr hidden noundef ptr @_ZNSt3__114pointer_traitsIPNS_12__value_typeINS_12basic_stringIcNS_11char_traitsIcEENS_9allocatorIcEEEEPN7mitsuba5ClassEEEE10pointer_toB8ne190000ERSB_(ptr noundef nonnull align 8 dereferenceable(32) %0) #2 comdat align 2 {
  %2 = alloca ptr, align 8
  store ptr %0, ptr %2, align 8
  %3 = load ptr, ptr %2, align 8
  ret ptr %3
}

; Function Attrs: mustprogress nounwind uwtable
define linkonce_odr hidden noundef ptr @_ZNKSt3__115__tree_iteratorINS_12__value_typeINS_12basic_stringIcNS_11char_traitsIcEENS_9allocatorIcEEEEPN7mitsuba5ClassEEEPNS_11__tree_nodeISB_PvEElE8__get_npB8ne190000Ev(ptr noundef nonnull align 8 dereferenceable(8) %0) #2 comdat align 2 {
  %2 = alloca ptr, align 8
  store ptr %0, ptr %2, align 8
  %3 = load ptr, ptr %2, align 8
  %4 = getelementptr inbounds %"class.std::__1::__tree_iterator", ptr %3, i32 0, i32 0
  %5 = load ptr, ptr %4, align 8
  ret ptr %5
}

; Function Attrs: mustprogress nounwind uwtable
define linkonce_odr hidden noundef zeroext i1 @_ZNSt3__1eqB8ne190000ERKNS_15__tree_iteratorINS_12__value_typeINS_12basic_stringIcNS_11char_traitsIcEENS_9allocatorIcEEEEPN7mitsuba5ClassEEEPNS_11__tree_nodeISB_PvEElEESI_(ptr noundef nonnull align 8 dereferenceable(8) %0, ptr noundef nonnull align 8 dereferenceable(8) %1) #2 comdat {
  %3 = alloca ptr, align 8
  %4 = alloca ptr, align 8
  store ptr %0, ptr %3, align 8
  store ptr %1, ptr %4, align 8
  %5 = load ptr, ptr %3, align 8
  %6 = getelementptr inbounds %"class.std::__1::__tree_iterator", ptr %5, i32 0, i32 0
  %7 = load ptr, ptr %6, align 8
  %8 = load ptr, ptr %4, align 8
  %9 = getelementptr inbounds %"class.std::__1::__tree_iterator", ptr %8, i32 0, i32 0
  %10 = load ptr, ptr %9, align 8
  %11 = icmp eq ptr %7, %10
  ret i1 %11
}

; Function Attrs: mustprogress nounwind uwtable
define linkonce_odr hidden void @_ZNSt3__115__tree_iteratorINS_12__value_typeINS_12basic_stringIcNS_11char_traitsIcEENS_9allocatorIcEEEEPN7mitsuba5ClassEEEPNS_11__tree_nodeISB_PvEElEC2B8ne190000EPNS_15__tree_end_nodeIPNS_16__tree_node_baseISD_EEEE(ptr noundef nonnull align 8 dereferenceable(8) %0, ptr noundef %1) unnamed_addr #2 comdat align 2 {
  %3 = alloca ptr, align 8
  %4 = alloca ptr, align 8
  store ptr %0, ptr %3, align 8
  store ptr %1, ptr %4, align 8
  %5 = load ptr, ptr %3, align 8
  %6 = getelementptr inbounds %"class.std::__1::__tree_iterator", ptr %5, i32 0, i32 0
  %7 = load ptr, ptr %4, align 8
  store ptr %7, ptr %6, align 8
  ret void
}

; Function Attrs: mustprogress nounwind uwtable
define linkonce_odr hidden noundef ptr @_ZNSt3__16__treeINS_12__value_typeINS_12basic_stringIcNS_11char_traitsIcEENS_9allocatorIcEEEEPN7mitsuba5ClassEEENS_19__map_value_compareIS7_SB_NS_4lessIS7_EELb1EEENS5_ISB_EEE10__end_nodeB8ne190000Ev(ptr noundef nonnull align 8 dereferenceable(24) %0) #2 comdat align 2 {
  %2 = alloca ptr, align 8
  store ptr %0, ptr %2, align 8
  %3 = load ptr, ptr %2, align 8
  %4 = getelementptr inbounds %"class.std::__1::__tree", ptr %3, i32 0, i32 1
  %5 = call noundef nonnull align 8 dereferenceable(8) ptr @_ZNSt3__117__compressed_pairINS_15__tree_end_nodeIPNS_16__tree_node_baseIPvEEEENS_9allocatorINS_11__tree_nodeINS_12__value_typeINS_12basic_stringIcNS_11char_traitsIcEENS7_IcEEEEPN7mitsuba5ClassEEES3_EEEEE5firstB8ne190000Ev(ptr noundef nonnull align 8 dereferenceable(8) %4) #14
  %6 = call noundef ptr @_ZNSt3__114pointer_traitsIPNS_15__tree_end_nodeIPNS_16__tree_node_baseIPvEEEEE10pointer_toB8ne190000ERS6_(ptr noundef nonnull align 8 dereferenceable(8) %5) #14
  ret ptr %6
}

; Function Attrs: mustprogress nounwind uwtable
define linkonce_odr hidden noundef ptr @_ZNSt3__114pointer_traitsIPNS_4pairIKNS_12basic_stringIcNS_11char_traitsIcEENS_9allocatorIcEEEEPN7mitsuba5ClassEEEE10pointer_toB8ne190000ERSC_(ptr noundef nonnull align 8 dereferenceable(32) %0) #2 comdat align 2 {
  %2 = alloca ptr, align 8
  store ptr %0, ptr %2, align 8
  %3 = load ptr, ptr %2, align 8
  ret ptr %3
}

; Function Attrs: mustprogress nounwind uwtable
define linkonce_odr hidden noundef nonnull align 8 dereferenceable(32) ptr @_ZNSt3__112__value_typeINS_12basic_stringIcNS_11char_traitsIcEENS_9allocatorIcEEEEPN7mitsuba5ClassEE11__get_valueB8ne190000Ev(ptr noundef nonnull align 8 dereferenceable(32) %0) #2 comdat align 2 {
  %2 = alloca ptr, align 8
  store ptr %0, ptr %2, align 8
  %3 = load ptr, ptr %2, align 8
  %4 = getelementptr inbounds %"struct.std::__1::__value_type", ptr %3, i32 0, i32 0
  %5 = call noundef ptr @_ZNSt3__17launderB8ne190000INS_4pairIKNS_12basic_stringIcNS_11char_traitsIcEENS_9allocatorIcEEEEPN7mitsuba5ClassEEEEEPT_SE_(ptr noundef %4) #14
  ret ptr %5
}

; Function Attrs: mustprogress uwtable
define linkonce_odr hidden noundef ptr @_ZNKSt3__115__tree_iteratorINS_12__value_typeINS_12basic_stringIcNS_11char_traitsIcEENS_9allocatorIcEEEEPN7mitsuba5ClassEEEPNS_11__tree_nodeISB_PvEElEptB8ne190000Ev(ptr noundef nonnull align 8 dereferenceable(8) %0) #0 comdat align 2 {
  %2 = alloca ptr, align 8
  store ptr %0, ptr %2, align 8
  %3 = load ptr, ptr %2, align 8
  %4 = call noundef ptr @_ZNKSt3__115__tree_iteratorINS_12__value_typeINS_12basic_stringIcNS_11char_traitsIcEENS_9allocatorIcEEEEPN7mitsuba5ClassEEEPNS_11__tree_nodeISB_PvEElE8__get_npB8ne190000Ev(ptr noundef nonnull align 8 dereferenceable(8) %3)
  %5 = getelementptr inbounds %"class.std::__1::__tree_node", ptr %4, i32 0, i32 1
  %6 = call noundef ptr @_ZNSt3__114pointer_traitsIPNS_12__value_typeINS_12basic_stringIcNS_11char_traitsIcEENS_9allocatorIcEEEEPN7mitsuba5ClassEEEE10pointer_toB8ne190000ERSB_(ptr noundef nonnull align 8 dereferenceable(32) %5) #14
  ret ptr %6
}

; Function Attrs: mustprogress uwtable
define linkonce_odr hidden noundef zeroext i1 @_ZNSt3__1neB8ne190000ERKNS_15__tree_iteratorINS_12__value_typeINS_12basic_stringIcNS_11char_traitsIcEENS_9allocatorIcEEEEPN7mitsuba5ClassEEEPNS_11__tree_nodeISB_PvEElEESI_(ptr noundef nonnull align 8 dereferenceable(8) %0, ptr noundef nonnull align 8 dereferenceable(8) %1) #0 comdat {
  %3 = alloca ptr, align 8
  %4 = alloca ptr, align 8
  store ptr %0, ptr %3, align 8
  store ptr %1, ptr %4, align 8
  %5 = load ptr, ptr %3, align 8
  %6 = load ptr, ptr %4, align 8
  %7 = call noundef zeroext i1 @_ZNSt3__1eqB8ne190000ERKNS_15__tree_iteratorINS_12__value_typeINS_12basic_stringIcNS_11char_traitsIcEENS_9allocatorIcEEEEPN7mitsuba5ClassEEEPNS_11__tree_nodeISB_PvEElEESI_(ptr noundef nonnull align 8 dereferenceable(8) %5, ptr noundef nonnull align 8 dereferenceable(8) %6)
  %8 = xor i1 %7, true
  ret i1 %8
}

; Function Attrs: mustprogress nounwind uwtable
define linkonce_odr hidden ptr @_ZNSt3__16__treeINS_12__value_typeINS_12basic_stringIcNS_11char_traitsIcEENS_9allocatorIcEEEEPN7mitsuba5ClassEEENS_19__map_value_compareIS7_SB_NS_4lessIS7_EELb1EEENS5_ISB_EEE3endB8ne190000Ev(ptr noundef nonnull align 8 dereferenceable(24) %0) #2 comdat align 2 {
  %2 = alloca %"class.std::__1::__tree_iterator", align 8
  %3 = alloca ptr, align 8
  store ptr %0, ptr %3, align 8
  %4 = load ptr, ptr %3, align 8
  %5 = call noundef ptr @_ZNSt3__16__treeINS_12__value_typeINS_12basic_stringIcNS_11char_traitsIcEENS_9allocatorIcEEEEPN7mitsuba5ClassEEENS_19__map_value_compareIS7_SB_NS_4lessIS7_EELb1EEENS5_ISB_EEE10__end_nodeB8ne190000Ev(ptr noundef nonnull align 8 dereferenceable(24) %4) #14
  call void @_ZNSt3__115__tree_iteratorINS_12__value_typeINS_12basic_stringIcNS_11char_traitsIcEENS_9allocatorIcEEEEPN7mitsuba5ClassEEEPNS_11__tree_nodeISB_PvEElEC2B8ne190000EPNS_15__tree_end_nodeIPNS_16__tree_node_baseISD_EEEE(ptr noundef nonnull align 8 dereferenceable(8) %2, ptr noundef %5) #14
  %6 = getelementptr inbounds %"class.std::__1::__tree_iterator", ptr %2, i32 0, i32 0
  %7 = load ptr, ptr %6, align 8
  ret ptr %7
}

; Function Attrs: mustprogress nounwind uwtable
define linkonce_odr hidden void @_ZNSt3__114__map_iteratorINS_15__tree_iteratorINS_12__value_typeINS_12basic_stringIcNS_11char_traitsIcEENS_9allocatorIcEEEEPN7mitsuba5ClassEEEPNS_11__tree_nodeISC_PvEElEEEC2B8ne190000ESH_(ptr noundef nonnull align 8 dereferenceable(8) %0, ptr %1) unnamed_addr #2 comdat align 2 {
  %3 = alloca %"class.std::__1::__tree_iterator", align 8
  %4 = alloca ptr, align 8
  %5 = getelementptr inbounds %"class.std::__1::__tree_iterator", ptr %3, i32 0, i32 0
  store ptr %1, ptr %5, align 8
  store ptr %0, ptr %4, align 8
  %6 = load ptr, ptr %4, align 8
  %7 = getelementptr inbounds %"class.std::__1::__map_iterator", ptr %6, i32 0, i32 0
  call void @llvm.memcpy.p0.p0.i64(ptr align 8 %7, ptr align 8 %3, i64 8, i1 false)
  ret void
}

; Function Attrs: mustprogress uwtable
define linkonce_odr hidden noundef ptr @_ZNKSt3__114__map_iteratorINS_15__tree_iteratorINS_12__value_typeINS_12basic_stringIcNS_11char_traitsIcEENS_9allocatorIcEEEEPN7mitsuba5ClassEEEPNS_11__tree_nodeISC_PvEElEEEptB8ne190000Ev(ptr noundef nonnull align 8 dereferenceable(8) %0) #0 comdat align 2 {
  %2 = alloca ptr, align 8
  store ptr %0, ptr %2, align 8
  %3 = load ptr, ptr %2, align 8
  %4 = getelementptr inbounds %"class.std::__1::__map_iterator", ptr %3, i32 0, i32 0
  %5 = call noundef ptr @_ZNKSt3__115__tree_iteratorINS_12__value_typeINS_12basic_stringIcNS_11char_traitsIcEENS_9allocatorIcEEEEPN7mitsuba5ClassEEEPNS_11__tree_nodeISB_PvEElEptB8ne190000Ev(ptr noundef nonnull align 8 dereferenceable(8) %4)
  %6 = call noundef nonnull align 8 dereferenceable(32) ptr @_ZNSt3__112__value_typeINS_12basic_stringIcNS_11char_traitsIcEENS_9allocatorIcEEEEPN7mitsuba5ClassEE11__get_valueB8ne190000Ev(ptr noundef nonnull align 8 dereferenceable(32) %5)
  %7 = call noundef ptr @_ZNSt3__114pointer_traitsIPNS_4pairIKNS_12basic_stringIcNS_11char_traitsIcEENS_9allocatorIcEEEEPN7mitsuba5ClassEEEE10pointer_toB8ne190000ERSC_(ptr noundef nonnull align 8 dereferenceable(32) %6) #14
  ret ptr %7
}

; Function Attrs: mustprogress uwtable
define linkonce_odr hidden noundef zeroext i1 @_ZNSt3__1neB8ne190000ERKNS_14__map_iteratorINS_15__tree_iteratorINS_12__value_typeINS_12basic_stringIcNS_11char_traitsIcEENS_9allocatorIcEEEEPN7mitsuba5ClassEEEPNS_11__tree_nodeISC_PvEElEEEESK_(ptr noundef nonnull align 8 dereferenceable(8) %0, ptr noundef nonnull align 8 dereferenceable(8) %1) #0 comdat {
  %3 = alloca ptr, align 8
  %4 = alloca ptr, align 8
  store ptr %0, ptr %3, align 8
  store ptr %1, ptr %4, align 8
  %5 = load ptr, ptr %3, align 8
  %6 = getelementptr inbounds %"class.std::__1::__map_iterator", ptr %5, i32 0, i32 0
  %7 = load ptr, ptr %4, align 8
  %8 = getelementptr inbounds %"class.std::__1::__map_iterator", ptr %7, i32 0, i32 0
  %9 = call noundef zeroext i1 @_ZNSt3__1neB8ne190000ERKNS_15__tree_iteratorINS_12__value_typeINS_12basic_stringIcNS_11char_traitsIcEENS_9allocatorIcEEEEPN7mitsuba5ClassEEEPNS_11__tree_nodeISB_PvEElEESI_(ptr noundef nonnull align 8 dereferenceable(8) %6, ptr noundef nonnull align 8 dereferenceable(8) %8)
  ret i1 %9
}

; Function Attrs: mustprogress nounwind uwtable
define linkonce_odr hidden ptr @_ZNSt3__13mapINS_12basic_stringIcNS_11char_traitsIcEENS_9allocatorIcEEEEPN7mitsuba5ClassENS_4lessIS6_EENS4_INS_4pairIKS6_S9_EEEEE3endB8ne190000Ev(ptr noundef nonnull align 8 dereferenceable(24) %0) #2 comdat align 2 {
  %2 = alloca %"class.std::__1::__map_iterator", align 8
  %3 = alloca ptr, align 8
  %4 = alloca %"class.std::__1::__tree_iterator", align 8
  store ptr %0, ptr %3, align 8
  %5 = load ptr, ptr %3, align 8
  %6 = getelementptr inbounds %"class.std::__1::map", ptr %5, i32 0, i32 0
  %7 = call ptr @_ZNSt3__16__treeINS_12__value_typeINS_12basic_stringIcNS_11char_traitsIcEENS_9allocatorIcEEEEPN7mitsuba5ClassEEENS_19__map_value_compareIS7_SB_NS_4lessIS7_EELb1EEENS5_ISB_EEE3endB8ne190000Ev(ptr noundef nonnull align 8 dereferenceable(24) %6) #14
  %8 = getelementptr inbounds %"class.std::__1::__tree_iterator", ptr %4, i32 0, i32 0
  store ptr %7, ptr %8, align 8
  %9 = getelementptr inbounds %"class.std::__1::__tree_iterator", ptr %4, i32 0, i32 0
  %10 = load ptr, ptr %9, align 8
  call void @_ZNSt3__114__map_iteratorINS_15__tree_iteratorINS_12__value_typeINS_12basic_stringIcNS_11char_traitsIcEENS_9allocatorIcEEEEPN7mitsuba5ClassEEEPNS_11__tree_nodeISC_PvEElEEEC2B8ne190000ESH_(ptr noundef nonnull align 8 dereferenceable(8) %2, ptr %10) #14
  %11 = getelementptr inbounds %"class.std::__1::__map_iterator", ptr %2, i32 0, i32 0
  %12 = getelementptr inbounds %"class.std::__1::__tree_iterator", ptr %11, i32 0, i32 0
  %13 = load ptr, ptr %12, align 8
  ret ptr %13
}

; Function Attrs: mustprogress uwtable
define linkonce_odr hidden ptr @_ZNSt3__13mapINS_12basic_stringIcNS_11char_traitsIcEENS_9allocatorIcEEEEPN7mitsuba5ClassENS_4lessIS6_EENS4_INS_4pairIKS6_S9_EEEEE4findB8ne190000ERSD_(ptr noundef nonnull align 8 dereferenceable(24) %0, ptr noundef nonnull align 8 dereferenceable(24) %1) #0 comdat align 2 {
  %3 = alloca %"class.std::__1::__map_iterator", align 8
  %4 = alloca ptr, align 8
  %5 = alloca ptr, align 8
  %6 = alloca %"class.std::__1::__tree_iterator", align 8
  store ptr %0, ptr %4, align 8
  store ptr %1, ptr %5, align 8
  %7 = load ptr, ptr %4, align 8
  %8 = getelementptr inbounds %"class.std::__1::map", ptr %7, i32 0, i32 0
  %9 = load ptr, ptr %5, align 8
  %10 = call ptr @_ZNSt3__16__treeINS_12__value_typeINS_12basic_stringIcNS_11char_traitsIcEENS_9allocatorIcEEEEPN7mitsuba5ClassEEENS_19__map_value_compareIS7_SB_NS_4lessIS7_EELb1EEENS5_ISB_EEE4findIS7_EENS_15__tree_iteratorISB_PNS_11__tree_nodeISB_PvEElEERKT_(ptr noundef nonnull align 8 dereferenceable(24) %8, ptr noundef nonnull align 8 dereferenceable(24) %9)
  %11 = getelementptr inbounds %"class.std::__1::__tree_iterator", ptr %6, i32 0, i32 0
  store ptr %10, ptr %11, align 8
  %12 = getelementptr inbounds %"class.std::__1::__tree_iterator", ptr %6, i32 0, i32 0
  %13 = load ptr, ptr %12, align 8
  call void @_ZNSt3__114__map_iteratorINS_15__tree_iteratorINS_12__value_typeINS_12basic_stringIcNS_11char_traitsIcEENS_9allocatorIcEEEEPN7mitsuba5ClassEEEPNS_11__tree_nodeISC_PvEElEEEC2B8ne190000ESH_(ptr noundef nonnull align 8 dereferenceable(8) %3, ptr %13) #14
  %14 = getelementptr inbounds %"class.std::__1::__map_iterator", ptr %3, i32 0, i32 0
  %15 = getelementptr inbounds %"class.std::__1::__tree_iterator", ptr %14, i32 0, i32 0
  %16 = load ptr, ptr %15, align 8
  ret ptr %16
}

; Function Attrs: mustprogress uwtable
define noundef ptr @_ZN7mitsuba5Class8for_nameERKNSt3__112basic_stringIcNS1_11char_traitsIcEENS1_9allocatorIcEEEES9_(ptr noundef nonnull align 8 dereferenceable(24) %0, ptr noundef nonnull align 8 dereferenceable(24) %1) #0 align 2 personality ptr @__gxx_personality_v0 {
  %3 = alloca ptr, align 8
  %4 = alloca ptr, align 8
  %5 = alloca ptr, align 8
  %6 = alloca %"class.std::__1::__map_iterator", align 8
  %7 = alloca %"class.std::__1::basic_string", align 8
  %8 = alloca ptr, align 8
  %9 = alloca i32, align 4
  %10 = alloca %"class.std::__1::__map_iterator", align 8
  store ptr %0, ptr %4, align 8
  store ptr %1, ptr %5, align 8
  %11 = load ptr, ptr @_ZN7mitsubaL9__classesE, align 8
  %12 = load ptr, ptr %4, align 8
  %13 = load ptr, ptr %5, align 8
  call void @_ZN7mitsuba3keyERKNSt3__112basic_stringIcNS0_11char_traitsIcEENS0_9allocatorIcEEEES8_(ptr dead_on_unwind writable sret(%"class.std::__1::basic_string") align 8 %7, ptr noundef nonnull align 8 dereferenceable(24) %12, ptr noundef nonnull align 8 dereferenceable(24) %13)
  %14 = invoke ptr @_ZNSt3__13mapINS_12basic_stringIcNS_11char_traitsIcEENS_9allocatorIcEEEEPN7mitsuba5ClassENS_4lessIS6_EENS4_INS_4pairIKS6_S9_EEEEE4findB8ne190000ERSD_(ptr noundef nonnull align 8 dereferenceable(24) %11, ptr noundef nonnull align 8 dereferenceable(24) %7)
          to label %15 unwind label %27

15:                                               ; preds = %2
  %16 = getelementptr inbounds %"class.std::__1::__map_iterator", ptr %6, i32 0, i32 0
  %17 = getelementptr inbounds %"class.std::__1::__tree_iterator", ptr %16, i32 0, i32 0
  store ptr %14, ptr %17, align 8
  call void @_ZNSt3__112basic_stringIcNS_11char_traitsIcEENS_9allocatorIcEEED1Ev(ptr noundef nonnull align 8 dereferenceable(24) %7) #14
  %18 = load ptr, ptr @_ZN7mitsubaL9__classesE, align 8
  %19 = call ptr @_ZNSt3__13mapINS_12basic_stringIcNS_11char_traitsIcEENS_9allocatorIcEEEEPN7mitsuba5ClassENS_4lessIS6_EENS4_INS_4pairIKS6_S9_EEEEE3endB8ne190000Ev(ptr noundef nonnull align 8 dereferenceable(24) %18) #14
  %20 = getelementptr inbounds %"class.std::__1::__map_iterator", ptr %10, i32 0, i32 0
  %21 = getelementptr inbounds %"class.std::__1::__tree_iterator", ptr %20, i32 0, i32 0
  store ptr %19, ptr %21, align 8
  %22 = call noundef zeroext i1 @_ZNSt3__1neB8ne190000ERKNS_14__map_iteratorINS_15__tree_iteratorINS_12__value_typeINS_12basic_stringIcNS_11char_traitsIcEENS_9allocatorIcEEEEPN7mitsuba5ClassEEEPNS_11__tree_nodeISC_PvEElEEEESK_(ptr noundef nonnull align 8 dereferenceable(8) %6, ptr noundef nonnull align 8 dereferenceable(8) %10)
  br i1 %22, label %23, label %31

23:                                               ; preds = %15
  %24 = call noundef ptr @_ZNKSt3__114__map_iteratorINS_15__tree_iteratorINS_12__value_typeINS_12basic_stringIcNS_11char_traitsIcEENS_9allocatorIcEEEEPN7mitsuba5ClassEEEPNS_11__tree_nodeISC_PvEElEEEptB8ne190000Ev(ptr noundef nonnull align 8 dereferenceable(8) %6)
  %25 = getelementptr inbounds %"struct.std::__1::pair", ptr %24, i32 0, i32 1
  %26 = load ptr, ptr %25, align 8
  store ptr %26, ptr %3, align 8
  br label %32

27:                                               ; preds = %2
  %28 = landingpad { ptr, i32 }
          cleanup
  %29 = extractvalue { ptr, i32 } %28, 0
  store ptr %29, ptr %8, align 8
  %30 = extractvalue { ptr, i32 } %28, 1
  store i32 %30, ptr %9, align 4
  call void @_ZNSt3__112basic_stringIcNS_11char_traitsIcEENS_9allocatorIcEEED1Ev(ptr noundef nonnull align 8 dereferenceable(24) %7) #14
  br label %34

31:                                               ; preds = %15
  store ptr null, ptr %3, align 8
  br label %32

32:                                               ; preds = %31, %23
  %33 = load ptr, ptr %3, align 8
  ret ptr %33

34:                                               ; preds = %27
  %35 = load ptr, ptr %8, align 8
  %36 = load i32, ptr %9, align 4
  %37 = insertvalue { ptr, i32 } poison, ptr %35, 0
  %38 = insertvalue { ptr, i32 } %37, i32 %36, 1
  resume { ptr, i32 } %38
}