; Function Attrs: mustprogress uwtable
define noundef ptr @_ZN7mitsuba5Class8for_nameERKNSt3__112basic_stringIcNS1_11char_traitsIcEENS1_9allocatorIcEEEES9_(ptr noundef nonnull align 8 dereferenceable(24) %0, ptr noundef nonnull align 8 dereferenceable(24) %1) local_unnamed_addr #0 align 2 personality ptr @__gxx_personality_v0 {
  %3 = alloca %"class.std::__1::basic_string", align 8
  %4 = load ptr, ptr @_ZN7mitsubaL9__classesE, align 8
  call void @_ZN7mitsuba3keyERKNSt3__112basic_stringIcNS0_11char_traitsIcEENS0_9allocatorIcEEEES8_(ptr dead_on_unwind nonnull writable sret(%"class.std::__1::basic_string") align 8 %3, ptr noundef nonnull align 8 dereferenceable(24) %0, ptr noundef nonnull align 8 dereferenceable(24) %1)
  %5 = invoke ptr @_ZNSt3__16__treeINS_12__value_typeINS_12basic_stringIcNS_11char_traitsIcEENS_9allocatorIcEEEEPN7mitsuba5ClassEEENS_19__map_value_compareIS7_SB_NS_4lessIS7_EELb1EEENS5_ISB_EEE4findIS7_EENS_15__tree_iteratorISB_PNS_11__tree_nodeISB_PvEElEERKT_(ptr noundef nonnull align 8 dereferenceable(24) %4, ptr noundef nonnull align 8 dereferenceable(24) %3)
          to label %_ZNSt3__13mapINS_12basic_stringIcNS_11char_traitsIcEENS_9allocatorIcEEEEPN7mitsuba5ClassENS_4lessIS6_EENS4_INS_4pairIKS6_S9_EEEEE4findB8ne190000ERSD_.exit unwind label %11

_ZNSt3__13mapINS_12basic_stringIcNS_11char_traitsIcEENS_9allocatorIcEEEEPN7mitsuba5ClassENS_4lessIS6_EENS4_INS_4pairIKS6_S9_EEEEE4findB8ne190000ERSD_.exit: ; preds = %2
  call void @_ZNSt3__112basic_stringIcNS_11char_traitsIcEENS_9allocatorIcEEED1Ev(ptr noundef nonnull align 8 dereferenceable(24) %3) #17
  %6 = load ptr, ptr @_ZN7mitsubaL9__classesE, align 8
  %7 = getelementptr inbounds i8, ptr %6, i64 8
  %.not = icmp eq ptr %5, %7
  br i1 %.not, label %13, label %8

8:                                                ; preds = %_ZNSt3__13mapINS_12basic_stringIcNS_11char_traitsIcEENS_9allocatorIcEEEEPN7mitsuba5ClassENS_4lessIS6_EENS4_INS_4pairIKS6_S9_EEEEE4findB8ne190000ERSD_.exit
  %9 = getelementptr inbounds i8, ptr %5, i64 56
  %10 = load ptr, ptr %9, align 8
  br label %13

11:                                               ; preds = %2
  %12 = landingpad { ptr, i32 }
          cleanup
  call void @_ZNSt3__112basic_stringIcNS_11char_traitsIcEENS_9allocatorIcEEED1Ev(ptr noundef nonnull align 8 dereferenceable(24) %3) #17
  resume { ptr, i32 } %12

13:                                               ; preds = %_ZNSt3__13mapINS_12basic_stringIcNS_11char_traitsIcEENS_9allocatorIcEEEEPN7mitsuba5ClassENS_4lessIS6_EENS4_INS_4pairIKS6_S9_EEEEE4findB8ne190000ERSD_.exit, %8
  %.0 = phi ptr [ %10, %8 ], [ null, %_ZNSt3__13mapINS_12basic_stringIcNS_11char_traitsIcEENS_9allocatorIcEEEEPN7mitsuba5ClassENS_4lessIS6_EENS4_INS_4pairIKS6_S9_EEEEE4findB8ne190000ERSD_.exit ]
  ret ptr %.0
}